target datalayout = "e-m:e-p270:32:32-p271:32:32-p272:64:64-i64:64-i128:128-f80:128-n8:16:32:64-S128"
target triple = "x86_64-pc-linux-gnu"

%struct.coap_common_dissect = type { %struct.anon, %struct.anon.0, %struct.anon.1 }
%struct.anon = type { i32, i32, i32, i32, i32, i32, i32, i32, i32, i32, i32, i32, i32, i32, i32, i32, i32, i32, i32, i32, i32, i32, i32, i32, i32, i32, i32, i32, i32, i32, i32, i32, i32, i32, i32, i32, i32, i32, i32, i32, i32, i32, i32, i32, i32, i32 }
%struct.anon.0 = type { i32, i32 }
%struct.anon.1 = type { %struct.expert_field, %struct.expert_field, %struct.expert_field, %struct.expert_field, %struct.expert_field }
%struct.expert_field = type { i32, i32 }
%struct.coap_info = type { ptr, i32, i32, i32, i32, ptr, ptr, i8, i8, ptr }

@.str.326 = private unnamed_addr constant [28 x i8] c"Block Size: %u (%u encoded)\00", align 1
@.str.327 = private unnamed_addr constant [22 x i8] c": NUM:%u, M:%u, SZ:%u\00", align 1

; Function Attrs: null_pointer_is_valid sspstrong uwtable
define internal i32 @coap_get_opt_uint(ptr noundef %0, i32 noundef %1, i32 noundef %2) #1 {
  %4 = alloca i32, align 4
  %5 = alloca ptr, align 8
  %6 = alloca i32, align 4
  %7 = alloca i32, align 4
  store ptr %0, ptr %5, align 8
  store i32 %1, ptr %6, align 4
  store i32 %2, ptr %7, align 4
  %8 = load i32, ptr %7, align 4
  switch i32 %8, label %28 [
    i32 0, label %9
    i32 1, label %10
    i32 2, label %15
    i32 3, label %20
    i32 4, label %24
  ]

9:                                                ; preds = %3
  store i32 0, ptr %4, align 4
  br label %29

10:                                               ; preds = %3
  %11 = load ptr, ptr %5, align 8
  %12 = load i32, ptr %6, align 4
  %13 = call zeroext i8 @tvb_get_uint8(ptr noundef %11, i32 noundef %12)
  %14 = zext i8 %13 to i32
  store i32 %14, ptr %4, align 4
  br label %29

15:                                               ; preds = %3
  %16 = load ptr, ptr %5, align 8
  %17 = load i32, ptr %6, align 4
  %18 = call zeroext i16 @tvb_get_ntohs(ptr noundef %16, i32 noundef %17)
  %19 = zext i16 %18 to i32
  store i32 %19, ptr %4, align 4
  br label %29

20:                                               ; preds = %3
  %21 = load ptr, ptr %5, align 8
  %22 = load i32, ptr %6, align 4
  %23 = call i32 @tvb_get_ntoh24(ptr noundef %21, i32 noundef %22)
  store i32 %23, ptr %4, align 4
  br label %29

24:                                               ; preds = %3
  %25 = load ptr, ptr %5, align 8
  %26 = load i32, ptr %6, align 4
  %27 = call i32 @tvb_get_ntohl(ptr noundef %25, i32 noundef %26)
  store i32 %27, ptr %4, align 4
  br label %29

28:                                               ; preds = %3
  store i32 -1, ptr %4, align 4
  br label %29

29:                                               ; preds = %28, %24, %20, %15, %10, %9
  %30 = load i32, ptr %4, align 4
  ret i32 %30
}

; Function Attrs: null_pointer_is_valid sspstrong uwtable
define internal void @dissect_coap_opt_block(ptr noundef %0, ptr noundef %1, ptr noundef %2, i32 noundef %3, i32 noundef %4, ptr noundef %5, ptr noundef %6) #1 {
  %8 = alloca ptr, align 8
  %9 = alloca ptr, align 8
  %10 = alloca ptr, align 8
  %11 = alloca i32, align 4
  %12 = alloca i32, align 4
  %13 = alloca ptr, align 8
  %14 = alloca ptr, align 8
  %15 = alloca i8, align 1
  %16 = alloca i32, align 4
  %17 = alloca i32, align 4
  store ptr %0, ptr %8, align 8
  store ptr %1, ptr %9, align 8
  store ptr %2, ptr %10, align 8
  store i32 %3, ptr %11, align 4
  store i32 %4, ptr %12, align 4
  store ptr %5, ptr %13, align 8
  store ptr %6, ptr %14, align 8
  call void @llvm.lifetime.start.p0(i64 1, ptr %15) #11
  store i8 0, ptr %15, align 1
  call void @llvm.lifetime.start.p0(i64 4, ptr %16) #11
  call void @llvm.lifetime.start.p0(i64 4, ptr %17) #11
  %18 = load i32, ptr %12, align 4
  %19 = icmp eq i32 %18, 0
  br i1 %19, label %20, label %23

20:                                               ; preds = %7
  %21 = load ptr, ptr %13, align 8
  %22 = getelementptr inbounds nuw %struct.coap_info, ptr %21, i32 0, i32 3
  store i32 0, ptr %22, align 8
  store i8 0, ptr %15, align 1
  br label %40

23:                                               ; preds = %7
  %24 = load ptr, ptr %8, align 8
  %25 = load i32, ptr %11, align 4
  %26 = load i32, ptr %12, align 4
  %27 = call i32 @coap_get_opt_uint(ptr noundef %24, i32 noundef %25, i32 noundef %26)
  %28 = ashr i32 %27, 4
  %29 = load ptr, ptr %13, align 8
  %30 = getelementptr inbounds nuw %struct.coap_info, ptr %29, i32 0, i32 3
  store i32 %28, ptr %30, align 8
  %31 = load ptr, ptr %8, align 8
  %32 = load i32, ptr %11, align 4
  %33 = load i32, ptr %12, align 4
  %34 = add i32 %32, %33
  %35 = sub i32 %34, 1
  %36 = call zeroext i8 @tvb_get_uint8(ptr noundef %31, i32 noundef %35)
  %37 = zext i8 %36 to i32
  %38 = and i32 %37, 15
  %39 = trunc i32 %38 to i8
  store i8 %39, ptr %15, align 1
  br label %40

40:                                               ; preds = %23, %20
  %41 = load ptr, ptr %10, align 8
  %42 = load ptr, ptr %14, align 8
  %43 = getelementptr inbounds nuw %struct.coap_common_dissect, ptr %42, i32 0, i32 0
  %44 = getelementptr inbounds nuw %struct.anon, ptr %43, i32 0, i32 28
  %45 = load i32, ptr %44, align 4
  %46 = load ptr, ptr %8, align 8
  %47 = load i32, ptr %11, align 4
  %48 = load i32, ptr %12, align 4
  %49 = load ptr, ptr %13, align 8
  %50 = getelementptr inbounds nuw %struct.coap_info, ptr %49, i32 0, i32 3
  %51 = load i32, ptr %50, align 8
  %52 = call ptr @proto_tree_add_uint(ptr noundef %41, i32 noundef %45, ptr noundef %46, i32 noundef %47, i32 noundef %48, i32 noundef %51)
  %53 = load i8, ptr %15, align 1
  %54 = zext i8 %53 to i32
  %55 = and i32 %54, 8
  %56 = ashr i32 %55, 3
  %57 = load ptr, ptr %13, align 8
  %58 = getelementptr inbounds nuw %struct.coap_info, ptr %57, i32 0, i32 4
  store i32 %56, ptr %58, align 4
  %59 = load ptr, ptr %10, align 8
  %60 = load ptr, ptr %14, align 8
  %61 = getelementptr inbounds nuw %struct.coap_common_dissect, ptr %60, i32 0, i32 0
  %62 = getelementptr inbounds nuw %struct.anon, ptr %61, i32 0, i32 29
  %63 = load i32, ptr %62, align 4
  %64 = load ptr, ptr %8, align 8
  %65 = load i32, ptr %11, align 4
  %66 = load i32, ptr %12, align 4
  %67 = add i32 %65, %66
  %68 = sub i32 %67, 1
  %69 = load i8, ptr %15, align 1
  %70 = zext i8 %69 to i32
  %71 = call ptr @proto_tree_add_uint(ptr noundef %59, i32 noundef %63, ptr noundef %64, i32 noundef %68, i32 noundef 1, i32 noundef %70)
  %72 = load i8, ptr %15, align 1
  %73 = zext i8 %72 to i32
  %74 = and i32 %73, 7
  store i32 %74, ptr %16, align 4
  %75 = load i32, ptr %16, align 4
  %76 = add i32 %75, 4
  %77 = shl i32 1, %76
  store i32 %77, ptr %17, align 4
  %78 = load ptr, ptr %10, align 8
  %79 = load ptr, ptr %14, align 8
  %80 = getelementptr inbounds nuw %struct.coap_common_dissect, ptr %79, i32 0, i32 0
  %81 = getelementptr inbounds nuw %struct.anon, ptr %80, i32 0, i32 30
  %82 = load i32, ptr %81, align 4
  %83 = load ptr, ptr %8, align 8
  %84 = load i32, ptr %11, align 4
  %85 = load i32, ptr %12, align 4
  %86 = add i32 %84, %85
  %87 = sub i32 %86, 1
  %88 = load i32, ptr %16, align 4
  %89 = load i32, ptr %17, align 4
  %90 = load i32, ptr %16, align 4
  %91 = call ptr (ptr, i32, ptr, i32, i32, i32, ptr, ...) @proto_tree_add_uint_format(ptr noundef %78, i32 noundef %82, ptr noundef %83, i32 noundef %87, i32 noundef 1, i32 noundef %88, ptr noundef @.str.326, i32 noundef %89, i32 noundef %90)
  %92 = load ptr, ptr %9, align 8
  %93 = load ptr, ptr %13, align 8
  %94 = getelementptr inbounds nuw %struct.coap_info, ptr %93, i32 0, i32 3
  %95 = load i32, ptr %94, align 8
  %96 = load ptr, ptr %13, align 8
  %97 = getelementptr inbounds nuw %struct.coap_info, ptr %96, i32 0, i32 4
  %98 = load i32, ptr %97, align 4
  %99 = load i32, ptr %17, align 4
  call void (ptr, ptr, ...) @proto_item_append_text(ptr noundef %92, ptr noundef @.str.327, i32 noundef %95, i32 noundef %98, i32 noundef %99)
  call void @llvm.lifetime.end.p0(i64 4, ptr %17) #11
  call void @llvm.lifetime.end.p0(i64 4, ptr %16) #11
  call void @llvm.lifetime.end.p0(i64 1, ptr %15) #11
  ret void
}