; Function Attrs: null_pointer_is_valid sspstrong uwtable
define internal fastcc void @dissect_coap_opt_block(ptr noundef %0, ptr noundef %1, ptr noundef %2, i32 noundef %3, i32 noundef %4, ptr noundef captures(none) initializes((16, 24)) %5, ptr noundef readonly captures(none) %6) unnamed_addr #1 {
  switch i32 %4, label %coap_get_opt_uint.exit [
    i32 0, label %8
    i32 4, label %18
    i32 1, label %10
    i32 2, label %13
    i32 3, label %16
  ]

8:                                                ; preds = %7
  %9 = getelementptr inbounds nuw i8, ptr %5, i64 16
  store i32 0, ptr %9, align 8
  %.pre37 = add i32 %3, -1
  %.pre38 = add nuw nsw i32 %.pre37, %4
  br label %27

10:                                               ; preds = %7
  %11 = tail call zeroext i8 @tvb_get_uint8(ptr noundef %0, i32 noundef %3)
  %12 = zext i8 %11 to i32
  br label %coap_get_opt_uint.exit

13:                                               ; preds = %7
  %14 = tail call zeroext i16 @tvb_get_ntohs(ptr noundef %0, i32 noundef %3)
  %15 = zext i16 %14 to i32
  br label %coap_get_opt_uint.exit

16:                                               ; preds = %7
  %17 = tail call i32 @tvb_get_ntoh24(ptr noundef %0, i32 noundef %3)
  br label %coap_get_opt_uint.exit

18:                                               ; preds = %7
  %19 = tail call i32 @tvb_get_ntohl(ptr noundef %0, i32 noundef %3)
  br label %coap_get_opt_uint.exit

coap_get_opt_uint.exit:                           ; preds = %7, %10, %13, %16, %18
  %.0.i = phi i32 [ %19, %18 ], [ %17, %16 ], [ %15, %13 ], [ %12, %10 ], [ -1, %7 ]
  %20 = ashr i32 %.0.i, 4
  %21 = getelementptr inbounds nuw i8, ptr %5, i64 16
  store i32 %20, ptr %21, align 8
  %22 = add i32 %3, -1
  %23 = add i32 %22, %4
  %24 = tail call zeroext i8 @tvb_get_uint8(ptr noundef %0, i32 noundef %23)
  %25 = and i8 %24, 15
  %26 = zext nneg i8 %25 to i32
  %.pre = load i32, ptr %21, align 8
  br label %27

27:                                               ; preds = %coap_get_opt_uint.exit, %8
  %.pre-phi39 = phi i32 [ %23, %coap_get_opt_uint.exit ], [ %.pre38, %8 ]
  %28 = phi i32 [ %.pre, %coap_get_opt_uint.exit ], [ 0, %8 ]
  %.0 = phi i32 [ %26, %coap_get_opt_uint.exit ], [ 0, %8 ]
  %29 = getelementptr inbounds nuw i8, ptr %6, i64 112
  %30 = load i32, ptr %29, align 4
  %31 = getelementptr inbounds nuw i8, ptr %5, i64 16
  %32 = tail call ptr @proto_tree_add_uint(ptr noundef %2, i32 noundef %30, ptr noundef %0, i32 noundef %3, i32 noundef %4, i32 noundef %28)
  %33 = lshr i32 %.0, 3
  %34 = getelementptr inbounds nuw i8, ptr %5, i64 20
  store i32 %33, ptr %34, align 4
  %35 = getelementptr inbounds nuw i8, ptr %6, i64 116
  %36 = load i32, ptr %35, align 4
  %37 = tail call ptr @proto_tree_add_uint(ptr noundef %2, i32 noundef %36, ptr noundef %0, i32 noundef %.pre-phi39, i32 noundef 1, i32 noundef %.0)
  %38 = and i32 %.0, 7
  %39 = shl nuw nsw i32 16, %38
  %40 = getelementptr inbounds nuw i8, ptr %6, i64 120
  %41 = load i32, ptr %40, align 4
  %42 = tail call ptr (ptr, i32, ptr, i32, i32, i32, ptr, ...) @proto_tree_add_uint_format(ptr noundef %2, i32 noundef %41, ptr noundef %0, i32 noundef %.pre-phi39, i32 noundef 1, i32 noundef %38, ptr noundef nonnull @.str.326, i32 noundef %39, i32 noundef %38)
  %43 = load i32, ptr %31, align 8
  %44 = load i32, ptr %34, align 4
  tail call void (ptr, ptr, ...) @proto_item_append_text(ptr noundef %1, ptr noundef nonnull @.str.327, i32 noundef %43, i32 noundef %44, i32 noundef %39)
  ret void
}